Certificate:
    Data:
        Version: 3 (0x2)
        Serial Number: 125 (0x7d)
        Signature Algorithm: md5WithRSAEncryption
        Issuer: C=EE, ST=Estonia, L=Tallinn, O=Hansabank, OU=0025200, CN=Hansabank Server Certification Authority/emailAddress=certmaster@hansa.ee
        Validity
            Not Before: Oct 31 09:26:45 2007 GMT
            Not After : Dec 25 09:26:45 2008 GMT
        Subject: C=EE, O=Hansabank, CN=Virtual POS
        Subject Public Key Info:
            Public Key Algorithm: rsaEncryption
            RSA Public Key: (1024 bit)
                Modulus (1024 bit):
                    00:b1:4a:b1:cf:a6:1c:bc:7d:1f:6b:ca:a9:c9:a9:
                    7b:e4:f1:c9:61:4c:c7:14:33:57:1e:d3:79:9e:73:
                    ff:25:f1:55:ba:67:c2:34:9f:97:5c:ca:d0:1f:26:
                    88:09:d3:76:9a:35:c8:31:22:47:ed:f1:2d:73:f1:
                    c6:13:0e:19:0c:18:a2:93:1a:97:8c:9e:d6:13:43:
                    d7:95:5b:5c:a3:59:60:96:44:ce:81:d9:4d:14:d1:
                    ec:d0:e3:80:32:b2:5d:fd:de:de:01:0a:87:e6:4b:
                    33:94:25:94:1d:ba:29:e8:8e:48:88:3e:0a:b0:a2:
                    4a:6e:39:f8:ba:d4:4f:aa:8f
                Exponent: 65537 (0x10001)
    Signature Algorithm: md5WithRSAEncryption
        23:dc:bb:5b:a9:b7:70:c6:93:39:75:74:ad:ee:69:81:0b:b7:
        9e:73:24:28:00:97:2c:57:a8:8b:76:d9:cc:87:7f:74:1f:35:
        8b:ea:a2:25:5c:a6:af:3c:15:06:25:8e:89:ac:05:e8:d4:b4:
        d2:0a:04:ca:81:36:dc:8c:72:24:06:b1:f6:e5:79:a9:f7:68:
        3a:1b:15:7c:9c:99:4b:38:c8:c7:f9:bf:db:52:60:74:c4:03:
        65:8b:11:e6:cc:e1:d5:d0:c0:07:fd:cb:5a:c8:2d:ef:01:e8:
        16:87:51:d0:b2:59:51:d3:d1:93:a8:7b:30:74:85:46:5c:0f:
        22:c0
-----BEGIN CERTIFICATE-----
MIICWjCCAcOgAwIBAgIBfTANBgkqhkiG9w0BAQQFADCBrjELMAkGA1UEBhMCRUUx
EDAOBgNVBAgTB0VzdG9uaWExEDAOBgNVBAcTB1RhbGxpbm4xEjAQBgNVBAoTCUhh
bnNhYmFuazEQMA4GA1UECxMHMDAyNTIwMDExMC8GA1UEAxMoSGFuc2FiYW5rIFNl
cnZlciBDZXJ0aWZpY2F0aW9uIEF1dGhvcml0eTEiMCAGCSqGSIb3DQEJARYTY2Vy
dG1hc3RlckBoYW5zYS5lZTAeFw0wNzEwMzEwOTI2NDVaFw0wODEyMjUwOTI2NDVa
MDcxCzAJBgNVBAYTAkVFMRIwEAYDVQQKEwlIYW5zYWJhbmsxFDASBgNVBAMTC1Zp
cnR1YWwgUE9TMIGfMA0GCSqGSIb3DQEBAQUAA4GNADCBiQKBgQCxSrHPphy8fR9r
yqnJqXvk8clhTMcUM1ce03mec/8l8VW6Z8I0n5dcytAfJogJ03aaNcgxIkft8S1z
8cYTDhkMGKKTGpeMntYTQ9eVW1yjWWCWRM6B2U0U0ezQ44Aysl393t4BCofmSzOU
JZQduinojkiIPgqwokpuOfi61E+qjwIDAQABMA0GCSqGSIb3DQEBBAUAA4GBACPc
u1upt3DGkzl1dK3uaYELt55zJCgAlyxXqIt22cyHf3QfNYvqoiVcpq88FQYljoms
BejUtNIKBMqBNtyMciQGsfblean3aDobFXycmUs4yMf5v9tSYHTEA2WLEebM4dXQ
wAf9y1rILe8B6BaHUdCyWVHT0ZOoezB0hUZcDyLA
-----END CERTIFICATE-----
